; Function Attrs: mustprogress nofree norecurse nosync nounwind willreturn memory(read, inaccessiblemem: none) uwtable
define i32 @avpriv_h264_has_num_reorder_frames(ptr noundef readonly captures(none) %0) local_unnamed_addr #0 {
  %2 = getelementptr inbounds nuw i8, ptr %0, i64 32
  %3 = load ptr, ptr %2, align 8, !tbaa !4
  %.not = icmp eq ptr %3, null
  br i1 %.not, label %10, label %4

4:                                                ; preds = %1
  %5 = getelementptr inbounds nuw i8, ptr %3, i64 734784
  %6 = load ptr, ptr %5, align 8, !tbaa !27
  %.not5 = icmp eq ptr %6, null
  br i1 %.not5, label %10, label %7

7:                                                ; preds = %4
  %8 = getelementptr inbounds nuw i8, ptr %6, i64 1212
  %9 = load i32, ptr %8, align 4, !tbaa !76
  br label %10

10:                                               ; preds = %1, %4, %7
  %11 = phi i32 [ %9, %7 ], [ 0, %4 ], [ 0, %1 ]
  ret i32 %11
}